; Function Attrs: mustprogress nofree nounwind willreturn memory(read, inaccessiblemem: readwrite) uwtable
define noalias noundef ptr @Fraig_ManAllocCounterExample(ptr noundef readonly captures(none) %0) local_unnamed_addr #3 {
  %2 = load ptr, ptr %0, align 8
  %3 = getelementptr inbounds nuw i8, ptr %2, i64 4
  %4 = load i32, ptr %3, align 4
  %5 = sext i32 %4 to i64
  %6 = shl nsw i64 %5, 2
  %calloc = tail call ptr @calloc(i64 1, i64 %6)
  ret ptr %calloc
}